target datalayout = "e-m:e-p270:32:32-p271:32:32-p272:64:64-i64:64-i128:128-f80:128-n8:16:32:64-S128"
target triple = "x86_64-pc-linux-gnu"

%struct.t_atoms = type { i32, ptr, ptr, ptr, ptr, i32, ptr, ptr, i8, i8, i8, i8, i8 }
%class.ChainIdFiller = type <{ i32, i8, i8, [2 x i8] }>
%struct.t_atom = type { float, float, float, float, i16, i16, i32, i32, i32, [4 x i8] }
%struct.t_resinfo = type { ptr, i32, i8, i32, i8, ptr }

; Function Attrs: mustprogress nounwind uwtable
define void @_ZN13ChainIdFiller4fillEP7t_atomsii(ptr noundef nonnull align 4 dereferenceable(6) %0, ptr noundef %1, i32 noundef %2, i32 noundef %3) #5 align 2 {
  %5 = alloca ptr, align 8
  %6 = alloca ptr, align 8
  %7 = alloca i32, align 4
  %8 = alloca i32, align 4
  %9 = alloca i8, align 1
  %10 = alloca i32, align 4
  store ptr %0, ptr %5, align 8, !tbaa !103
  store ptr %1, ptr %6, align 8, !tbaa !11
  store i32 %2, ptr %7, align 4, !tbaa !17
  store i32 %3, ptr %8, align 4, !tbaa !17
  %11 = load ptr, ptr %5, align 8
  call void @llvm.lifetime.start.p0(i64 1, ptr %9) #12
  %12 = load i32, ptr %8, align 4, !tbaa !17
  %13 = load i32, ptr %7, align 4, !tbaa !17
  %14 = sub nsw i32 %12, %13
  %15 = icmp sge i32 %14, 15
  br i1 %15, label %16, label %50

16:                                               ; preds = %4
  %17 = getelementptr inbounds nuw %class.ChainIdFiller, ptr %11, i32 0, i32 2
  %18 = load i8, ptr %17, align 1, !tbaa !105, !range !107, !noundef !108
  %19 = trunc i8 %18 to i1
  br i1 %19, label %50, label %20

20:                                               ; preds = %16
  %21 = getelementptr inbounds nuw %class.ChainIdFiller, ptr %11, i32 0, i32 1
  %22 = load i8, ptr %21, align 4, !tbaa !109
  store i8 %22, ptr %9, align 1, !tbaa !71
  %23 = getelementptr inbounds nuw %class.ChainIdFiller, ptr %11, i32 0, i32 1
  %24 = load i8, ptr %23, align 4, !tbaa !109
  %25 = sext i8 %24 to i32
  %26 = icmp eq i32 %25, 90
  br i1 %26, label %27, label %29

27:                                               ; preds = %20
  %28 = getelementptr inbounds nuw %class.ChainIdFiller, ptr %11, i32 0, i32 1
  store i8 97, ptr %28, align 4, !tbaa !109
  br label %49

29:                                               ; preds = %20
  %30 = getelementptr inbounds nuw %class.ChainIdFiller, ptr %11, i32 0, i32 1
  %31 = load i8, ptr %30, align 4, !tbaa !109
  %32 = sext i8 %31 to i32
  %33 = icmp eq i32 %32, 122
  br i1 %33, label %34, label %36

34:                                               ; preds = %29
  %35 = getelementptr inbounds nuw %class.ChainIdFiller, ptr %11, i32 0, i32 1
  store i8 48, ptr %35, align 4, !tbaa !109
  br label %48

36:                                               ; preds = %29
  %37 = getelementptr inbounds nuw %class.ChainIdFiller, ptr %11, i32 0, i32 1
  %38 = load i8, ptr %37, align 4, !tbaa !109
  %39 = sext i8 %38 to i32
  %40 = icmp eq i32 %39, 57
  br i1 %40, label %41, label %43

41:                                               ; preds = %36
  %42 = getelementptr inbounds nuw %class.ChainIdFiller, ptr %11, i32 0, i32 2
  store i8 1, ptr %42, align 1, !tbaa !105
  br label %47

43:                                               ; preds = %36
  %44 = getelementptr inbounds nuw %class.ChainIdFiller, ptr %11, i32 0, i32 1
  %45 = load i8, ptr %44, align 4, !tbaa !109
  %46 = add i8 %45, 1
  store i8 %46, ptr %44, align 4, !tbaa !109
  br label %47

47:                                               ; preds = %43, %41
  br label %48

48:                                               ; preds = %47, %34
  br label %49

49:                                               ; preds = %48, %27
  br label %51

50:                                               ; preds = %16, %4
  store i8 32, ptr %9, align 1, !tbaa !71
  br label %51

51:                                               ; preds = %50, %49
  call void @llvm.lifetime.start.p0(i64 4, ptr %10) #12
  %52 = load i32, ptr %7, align 4, !tbaa !17
  store i32 %52, ptr %10, align 4, !tbaa !17
  br label %53

53:                                               ; preds = %90, %51
  %54 = load i32, ptr %10, align 4, !tbaa !17
  %55 = load i32, ptr %8, align 4, !tbaa !17
  %56 = icmp slt i32 %54, %55
  br i1 %56, label %58, label %57

57:                                               ; preds = %53
  call void @llvm.lifetime.end.p0(i64 4, ptr %10) #12
  br label %93

58:                                               ; preds = %53
  %59 = getelementptr inbounds nuw %class.ChainIdFiller, ptr %11, i32 0, i32 0
  %60 = load i32, ptr %59, align 4, !tbaa !110
  %61 = load ptr, ptr %6, align 8, !tbaa !11
  %62 = getelementptr inbounds nuw %struct.t_atoms, ptr %61, i32 0, i32 6
  %63 = load ptr, ptr %62, align 8, !tbaa !111
  %64 = load ptr, ptr %6, align 8, !tbaa !11
  %65 = getelementptr inbounds nuw %struct.t_atoms, ptr %64, i32 0, i32 1
  %66 = load ptr, ptr %65, align 8, !tbaa !112
  %67 = load i32, ptr %10, align 4, !tbaa !17
  %68 = sext i32 %67 to i64
  %69 = getelementptr inbounds %struct.t_atom, ptr %66, i64 %68
  %70 = getelementptr inbounds nuw %struct.t_atom, ptr %69, i32 0, i32 7
  %71 = load i32, ptr %70, align 4, !tbaa !113
  %72 = sext i32 %71 to i64
  %73 = getelementptr inbounds %struct.t_resinfo, ptr %63, i64 %72
  %74 = getelementptr inbounds nuw %struct.t_resinfo, ptr %73, i32 0, i32 3
  store i32 %60, ptr %74, align 8, !tbaa !117
  %75 = load i8, ptr %9, align 1, !tbaa !71
  %76 = load ptr, ptr %6, align 8, !tbaa !11
  %77 = getelementptr inbounds nuw %struct.t_atoms, ptr %76, i32 0, i32 6
  %78 = load ptr, ptr %77, align 8, !tbaa !111
  %79 = load ptr, ptr %6, align 8, !tbaa !11
  %80 = getelementptr inbounds nuw %struct.t_atoms, ptr %79, i32 0, i32 1
  %81 = load ptr, ptr %80, align 8, !tbaa !112
  %82 = load i32, ptr %10, align 4, !tbaa !17
  %83 = sext i32 %82 to i64
  %84 = getelementptr inbounds %struct.t_atom, ptr %81, i64 %83
  %85 = getelementptr inbounds nuw %struct.t_atom, ptr %84, i32 0, i32 7
  %86 = load i32, ptr %85, align 4, !tbaa !113
  %87 = sext i32 %86 to i64
  %88 = getelementptr inbounds %struct.t_resinfo, ptr %78, i64 %87
  %89 = getelementptr inbounds nuw %struct.t_resinfo, ptr %88, i32 0, i32 4
  store i8 %75, ptr %89, align 4, !tbaa !119
  br label %90

90:                                               ; preds = %58
  %91 = load i32, ptr %10, align 4, !tbaa !17
  %92 = add nsw i32 %91, 1
  store i32 %92, ptr %10, align 4, !tbaa !17
  br label %53, !llvm.loop !120

93:                                               ; preds = %57
  %94 = getelementptr inbounds nuw %class.ChainIdFiller, ptr %11, i32 0, i32 0
  %95 = load i32, ptr %94, align 4, !tbaa !110
  %96 = add nsw i32 %95, 1
  store i32 %96, ptr %94, align 4, !tbaa !110
  call void @llvm.lifetime.end.p0(i64 1, ptr %9) #12
  ret void
}