; Function Attrs: mustprogress nofree norecurse nosync nounwind memory(readwrite, inaccessiblemem: none) uwtable
define void @_ZN13ChainIdFiller4fillEP7t_atomsii(ptr noundef nonnull align 4 captures(none) dereferenceable(6) %0, ptr noundef readonly captures(none) %1, i32 noundef %2, i32 noundef %3) local_unnamed_addr #10 align 2 {
  %5 = sub nsw i32 %3, %2
  %6 = icmp sgt i32 %5, 14
  br i1 %6, label %7, label %19

7:                                                ; preds = %4
  %8 = getelementptr inbounds nuw i8, ptr %0, i64 5
  %9 = load i8, ptr %8, align 1, !tbaa !46, !range !48, !noundef !49
  %10 = trunc nuw i8 %9 to i1
  br i1 %10, label %19, label %11

11:                                               ; preds = %7
  %12 = getelementptr inbounds nuw i8, ptr %0, i64 4
  %13 = load i8, ptr %12, align 4, !tbaa !50
  switch i8 %13, label %17 [
    i8 90, label %14
    i8 122, label %15
    i8 57, label %16
  ]

14:                                               ; preds = %11
  store i8 97, ptr %12, align 4, !tbaa !50
  br label %19

15:                                               ; preds = %11
  store i8 48, ptr %12, align 4, !tbaa !50
  br label %19

16:                                               ; preds = %11
  store i8 1, ptr %8, align 1, !tbaa !46
  br label %19

17:                                               ; preds = %11
  %18 = add i8 %13, 1
  store i8 %18, ptr %12, align 4, !tbaa !50
  br label %19

19:                                               ; preds = %4, %7, %14, %16, %17, %15
  %.013 = phi i8 [ 90, %14 ], [ 122, %15 ], [ 57, %16 ], [ %13, %17 ], [ 32, %7 ], [ 32, %4 ]
  %20 = icmp slt i32 %2, %3
  %.pre = load i32, ptr %0, align 4, !tbaa !51
  br i1 %20, label %.lr.ph, label %._crit_edge

.lr.ph:                                           ; preds = %19
  %21 = getelementptr inbounds nuw i8, ptr %1, i64 48
  %22 = load ptr, ptr %21, align 8, !tbaa !52
  %23 = getelementptr inbounds nuw i8, ptr %1, i64 8
  %24 = load ptr, ptr %23, align 8, !tbaa !53
  %25 = sext i32 %2 to i64
  %wide.trip.count = sext i32 %3 to i64
  br label %27

._crit_edge:                                      ; preds = %27, %19
  %26 = add nsw i32 %.pre, 1
  store i32 %26, ptr %0, align 4, !tbaa !51
  ret void

27:                                               ; preds = %.lr.ph, %27
  %indvars.iv = phi i64 [ %25, %.lr.ph ], [ %indvars.iv.next, %27 ]
  %28 = getelementptr inbounds %struct.t_atom, ptr %24, i64 %indvars.iv, i32 7
  %29 = load i32, ptr %28, align 4, !tbaa !54
  %30 = sext i32 %29 to i64
  %31 = getelementptr inbounds %struct.t_resinfo, ptr %22, i64 %30, i32 3
  store i32 %.pre, ptr %31, align 8, !tbaa !58
  %32 = getelementptr inbounds %struct.t_resinfo, ptr %22, i64 %30, i32 4
  store i8 %.013, ptr %32, align 4, !tbaa !61
  %indvars.iv.next = add nsw i64 %indvars.iv, 1
  %exitcond.not = icmp eq i64 %indvars.iv.next, %wide.trip.count
  br i1 %exitcond.not, label %._crit_edge, label %27, !llvm.loop !62
}